target datalayout = "e-m:e-p270:32:32-p271:32:32-p272:64:64-i64:64-i128:128-f80:128-n8:16:32:64-S128"
target triple = "x86_64-pc-linux-gnu"

%struct.PLpgSQL_function = type { ptr, i32, i32, %struct.ItemPointerData, i32, i32, ptr, ptr, i32, i32, i8, i8, i8, i8, i8, i8, i32, [100 x i32], i32, i32, i32, i32, i32, i8, i32, i32, i32, ptr, i64, ptr, i32, i8, i8, ptr, i64 }
%struct.ItemPointerData = type { %struct.BlockIdData, i16 }
%struct.BlockIdData = type { i16, i16 }
%struct.PLpgSQL_datum = type { i32, i32 }
%struct.PLpgSQL_var = type { i32, i32, ptr, i32, i8, i8, ptr, ptr, ptr, i32, i32, i64, i8, i8, i32 }
%struct.PLpgSQL_rec = type { i32, i32, ptr, i32, i8, i8, ptr, ptr, i32, i32, ptr }
%struct.PLpgSQL_expr = type { ptr, i32, ptr, ptr, i32, i8, ptr, ptr, ptr, i32, i32, i8, i32, ptr, ptr, ptr, i32, ptr, i8, i32 }

@.str.46 = private unnamed_addr constant [11 x i8] c"plpgsql-18\00", align 1
@.str.47 = private unnamed_addr constant [27 x i8] c"unrecognized data type: %d\00", align 1
@.str.48 = private unnamed_addr constant [11 x i8] c"pl_funcs.c\00", align 1
@__func__.plpgsql_free_function_memory = private unnamed_addr constant [29 x i8] c"plpgsql_free_function_memory\00", align 1

; Function Attrs: nounwind uwtable
define internal void @free_expr(ptr noundef %0, ptr noundef %1) #0 {
  %3 = alloca ptr, align 8
  %4 = alloca ptr, align 8
  store ptr %0, ptr %3, align 8
  store ptr %1, ptr %4, align 8
  %5 = load ptr, ptr %3, align 8
  %6 = icmp ne ptr %5, null
  br i1 %6, label %7, label %19

7:                                                ; preds = %2
  %8 = load ptr, ptr %3, align 8
  %9 = getelementptr inbounds nuw %struct.PLpgSQL_expr, ptr %8, i32 0, i32 6
  %10 = load ptr, ptr %9, align 8
  %11 = icmp ne ptr %10, null
  br i1 %11, label %12, label %19

12:                                               ; preds = %7
  %13 = load ptr, ptr %3, align 8
  %14 = getelementptr inbounds nuw %struct.PLpgSQL_expr, ptr %13, i32 0, i32 6
  %15 = load ptr, ptr %14, align 8
  %16 = call i32 @SPI_freeplan(ptr noundef %15)
  %17 = load ptr, ptr %3, align 8
  %18 = getelementptr inbounds nuw %struct.PLpgSQL_expr, ptr %17, i32 0, i32 6
  store ptr null, ptr %18, align 8
  br label %19

19:                                               ; preds = %12, %7, %2
  ret void
}

; Function Attrs: nounwind uwtable
define hidden void @plpgsql_free_function_memory(ptr noundef %0) #0 {
  %2 = alloca ptr, align 8
  %3 = alloca i32, align 4
  %4 = alloca ptr, align 8
  %5 = alloca ptr, align 8
  %6 = alloca ptr, align 8
  store ptr %0, ptr %2, align 8
  call void @llvm.lifetime.start.p0(i64 4, ptr %3) #8
  store i32 0, ptr %3, align 4
  br label %7

7:                                                ; preds = %52, %1
  %8 = load i32, ptr %3, align 4
  %9 = load ptr, ptr %2, align 8
  %10 = getelementptr inbounds nuw %struct.PLpgSQL_function, ptr %9, i32 0, i32 26
  %11 = load i32, ptr %10, align 4
  %12 = icmp slt i32 %8, %11
  br i1 %12, label %13, label %55

13:                                               ; preds = %7
  call void @llvm.lifetime.start.p0(i64 8, ptr %4) #8
  %14 = load ptr, ptr %2, align 8
  %15 = getelementptr inbounds nuw %struct.PLpgSQL_function, ptr %14, i32 0, i32 27
  %16 = load ptr, ptr %15, align 8
  %17 = load i32, ptr %3, align 4
  %18 = sext i32 %17 to i64
  %19 = getelementptr inbounds ptr, ptr %16, i64 %18
  %20 = load ptr, ptr %19, align 8
  store ptr %20, ptr %4, align 8
  %21 = load ptr, ptr %4, align 8
  %22 = getelementptr inbounds nuw %struct.PLpgSQL_datum, ptr %21, i32 0, i32 0
  %23 = load i32, ptr %22, align 4
  switch i32 %23, label %37 [
    i32 0, label %24
    i32 4, label %24
    i32 1, label %51
    i32 2, label %32
    i32 3, label %51
  ]

24:                                               ; preds = %13, %13
  call void @llvm.lifetime.start.p0(i64 8, ptr %5) #8
  %25 = load ptr, ptr %4, align 8
  store ptr %25, ptr %5, align 8
  %26 = load ptr, ptr %5, align 8
  %27 = getelementptr inbounds nuw %struct.PLpgSQL_var, ptr %26, i32 0, i32 6
  %28 = load ptr, ptr %27, align 8
  call void @free_expr(ptr noundef %28, ptr noundef null)
  %29 = load ptr, ptr %5, align 8
  %30 = getelementptr inbounds nuw %struct.PLpgSQL_var, ptr %29, i32 0, i32 8
  %31 = load ptr, ptr %30, align 8
  call void @free_expr(ptr noundef %31, ptr noundef null)
  call void @llvm.lifetime.end.p0(i64 8, ptr %5) #8
  br label %51

32:                                               ; preds = %13
  call void @llvm.lifetime.start.p0(i64 8, ptr %6) #8
  %33 = load ptr, ptr %4, align 8
  store ptr %33, ptr %6, align 8
  %34 = load ptr, ptr %6, align 8
  %35 = getelementptr inbounds nuw %struct.PLpgSQL_rec, ptr %34, i32 0, i32 6
  %36 = load ptr, ptr %35, align 8
  call void @free_expr(ptr noundef %36, ptr noundef null)
  call void @llvm.lifetime.end.p0(i64 8, ptr %6) #8
  br label %51

37:                                               ; preds = %13
  br label %38

38:                                               ; preds = %37
  br i1 true, label %39, label %41

39:                                               ; preds = %38
  %40 = call zeroext i1 @errstart_cold(i32 noundef 21, ptr noundef @.str.46) #10
  br i1 %40, label %43, label %48

41:                                               ; preds = %38
  %42 = call zeroext i1 @errstart(i32 noundef 21, ptr noundef @.str.46)
  br i1 %42, label %43, label %48

43:                                               ; preds = %41, %39
  %44 = load ptr, ptr %4, align 8
  %45 = getelementptr inbounds nuw %struct.PLpgSQL_datum, ptr %44, i32 0, i32 0
  %46 = load i32, ptr %45, align 4
  %47 = call i32 (ptr, ...) @errmsg_internal(ptr noundef @.str.47, i32 noundef %46)
  call void @errfinish(ptr noundef @.str.48, i32 noundef 751, ptr noundef @__func__.plpgsql_free_function_memory)
  br label %48

48:                                               ; preds = %43, %41, %39
  unreachable

49:                                               ; No predecessors!
  br label %50

50:                                               ; preds = %49
  br label %51

51:                                               ; preds = %50, %13, %32, %13, %24
  call void @llvm.lifetime.end.p0(i64 8, ptr %4) #8
  br label %52

52:                                               ; preds = %51
  %53 = load i32, ptr %3, align 4
  %54 = add i32 %53, 1
  store i32 %54, ptr %3, align 4
  br label %7, !llvm.loop !14

55:                                               ; preds = %7
  %56 = load ptr, ptr %2, align 8
  %57 = getelementptr inbounds nuw %struct.PLpgSQL_function, ptr %56, i32 0, i32 26
  store i32 0, ptr %57, align 4
  %58 = load ptr, ptr %2, align 8
  %59 = getelementptr inbounds nuw %struct.PLpgSQL_function, ptr %58, i32 0, i32 29
  %60 = load ptr, ptr %59, align 8
  call void @free_stmt(ptr noundef %60, ptr noundef null)
  %61 = load ptr, ptr %2, align 8
  %62 = getelementptr inbounds nuw %struct.PLpgSQL_function, ptr %61, i32 0, i32 29
  store ptr null, ptr %62, align 8
  %63 = load ptr, ptr %2, align 8
  %64 = getelementptr inbounds nuw %struct.PLpgSQL_function, ptr %63, i32 0, i32 7
  %65 = load ptr, ptr %64, align 8
  %66 = icmp ne ptr %65, null
  br i1 %66, label %67, label %71

67:                                               ; preds = %55
  %68 = load ptr, ptr %2, align 8
  %69 = getelementptr inbounds nuw %struct.PLpgSQL_function, ptr %68, i32 0, i32 7
  %70 = load ptr, ptr %69, align 8
  call void @MemoryContextDelete(ptr noundef %70)
  br label %71

71:                                               ; preds = %67, %55
  %72 = load ptr, ptr %2, align 8
  %73 = getelementptr inbounds nuw %struct.PLpgSQL_function, ptr %72, i32 0, i32 7
  store ptr null, ptr %73, align 8
  call void @llvm.lifetime.end.p0(i64 4, ptr %3) #8
  ret void
}