; Function Attrs: nounwind uwtable
define hidden void @plpgsql_free_function_memory(ptr noundef captures(none) %0) local_unnamed_addr #1 {
  %2 = getelementptr inbounds nuw i8, ptr %0, i64 500
  %3 = load i32, ptr %2, align 4
  %4 = icmp sgt i32 %3, 0
  br i1 %4, label %.lr.ph, label %._crit_edge

.lr.ph:                                           ; preds = %1
  %5 = getelementptr inbounds nuw i8, ptr %0, i64 504
  br label %6

6:                                                ; preds = %.lr.ph, %free_expr.exit20
  %indvars.iv = phi i64 [ 0, %.lr.ph ], [ %indvars.iv.next, %free_expr.exit20 ]
  %7 = load ptr, ptr %5, align 8
  %8 = getelementptr inbounds nuw ptr, ptr %7, i64 %indvars.iv
  %9 = load ptr, ptr %8, align 8
  %10 = load i32, ptr %9, align 4
  switch i32 %10, label %34 [
    i32 0, label %11
    i32 4, label %11
    i32 1, label %free_expr.exit20
    i32 2, label %26
    i32 3, label %free_expr.exit20
  ]

11:                                               ; preds = %6, %6
  %12 = getelementptr inbounds nuw i8, ptr %9, i64 24
  %13 = load ptr, ptr %12, align 8
  %.not.i = icmp eq ptr %13, null
  br i1 %.not.i, label %free_expr.exit, label %14

14:                                               ; preds = %11
  %15 = getelementptr inbounds nuw i8, ptr %13, i64 40
  %16 = load ptr, ptr %15, align 8
  %.not5.i = icmp eq ptr %16, null
  br i1 %.not5.i, label %free_expr.exit, label %17

17:                                               ; preds = %14
  %18 = tail call i32 @SPI_freeplan(ptr noundef nonnull %16) #16
  store ptr null, ptr %15, align 8
  br label %free_expr.exit

free_expr.exit:                                   ; preds = %11, %14, %17
  %19 = getelementptr inbounds nuw i8, ptr %9, i64 40
  %20 = load ptr, ptr %19, align 8
  %.not.i18 = icmp eq ptr %20, null
  br i1 %.not.i18, label %free_expr.exit20, label %21

21:                                               ; preds = %free_expr.exit
  %22 = getelementptr inbounds nuw i8, ptr %20, i64 40
  %23 = load ptr, ptr %22, align 8
  %.not5.i19 = icmp eq ptr %23, null
  br i1 %.not5.i19, label %free_expr.exit20, label %24

24:                                               ; preds = %21
  %25 = tail call i32 @SPI_freeplan(ptr noundef nonnull %23) #16
  store ptr null, ptr %22, align 8
  br label %free_expr.exit20

26:                                               ; preds = %6
  %27 = getelementptr inbounds nuw i8, ptr %9, i64 24
  %28 = load ptr, ptr %27, align 8
  %.not.i21 = icmp eq ptr %28, null
  br i1 %.not.i21, label %free_expr.exit20, label %29

29:                                               ; preds = %26
  %30 = getelementptr inbounds nuw i8, ptr %28, i64 40
  %31 = load ptr, ptr %30, align 8
  %.not5.i22 = icmp eq ptr %31, null
  br i1 %.not5.i22, label %free_expr.exit20, label %32

32:                                               ; preds = %29
  %33 = tail call i32 @SPI_freeplan(ptr noundef nonnull %31) #16
  store ptr null, ptr %30, align 8
  br label %free_expr.exit20

34:                                               ; preds = %6
  %35 = tail call zeroext i1 @errstart_cold(i32 noundef 21, ptr noundef nonnull @.str.46) #17
  tail call void @llvm.assume(i1 %35)
  %36 = load i32, ptr %9, align 4
  %37 = tail call i32 (ptr, ...) @errmsg_internal(ptr noundef nonnull @.str.47, i32 noundef %36) #16
  tail call void @errfinish(ptr noundef nonnull @.str.48, i32 noundef 751, ptr noundef nonnull @__func__.plpgsql_free_function_memory) #16
  unreachable

free_expr.exit20:                                 ; preds = %32, %29, %26, %24, %21, %free_expr.exit, %6, %6
  %indvars.iv.next = add nuw nsw i64 %indvars.iv, 1
  %38 = load i32, ptr %2, align 4
  %39 = sext i32 %38 to i64
  %40 = icmp slt i64 %indvars.iv.next, %39
  br i1 %40, label %6, label %._crit_edge, !llvm.loop !13

._crit_edge:                                      ; preds = %free_expr.exit20, %1
  store i32 0, ptr %2, align 4
  %41 = getelementptr inbounds nuw i8, ptr %0, i64 520
  %42 = load ptr, ptr %41, align 8
  tail call fastcc void @free_stmt(ptr noundef %42)
  store ptr null, ptr %41, align 8
  %43 = getelementptr inbounds nuw i8, ptr %0, i64 40
  %44 = load ptr, ptr %43, align 8
  %.not = icmp eq ptr %44, null
  br i1 %.not, label %46, label %45

45:                                               ; preds = %._crit_edge
  tail call void @MemoryContextDelete(ptr noundef nonnull %44) #16
  br label %46

46:                                               ; preds = %45, %._crit_edge
  store ptr null, ptr %43, align 8
  ret void
}